(dp0
S'http://afternoon-cloud-1710.herokuapp.com/order/?id=364637'
p1
S'http://bit.ly/pqQFVk.qrcode'
p2
sS'http://afternoon-cloud-1710.herokuapp.com/order/?id=364636'
p3
S'http://bit.ly/nN6BNS.qrcode'
p4
sS'http://afternoon-cloud-1710.herokuapp.com/order/?id=364635'
p5
S'http://bit.ly/n7vs2y.qrcode'
p6
sS'http://afternoon-cloud-1710.herokuapp.com/order/?id=364634'
p7
S'http://bit.ly/pTGbpk.qrcode'
p8
sS'http://afternoon-cloud-1710.herokuapp.com/order/?id=364633'
p9
S'http://bit.ly/rsgErE.qrcode'
p10
sS'http://afternoon-cloud-1710.herokuapp.com/order/?id=364632'
p11
S'http://bit.ly/oqMeGB.qrcode'
p12
sS'http://afternoon-cloud-1710.herokuapp.com/order/?id=364621'
p13
S'http://bit.ly/rdPpSV.qrcode'
p14
sS'http://afternoon-cloud-1710.herokuapp.com/order/?id=365623'
p15
S'http://bit.ly/op41x2.qrcode'
p16
sS'http://afternoon-cloud-1710.herokuapp.com/order/?id=781314'
p17
S'http://bit.ly/oCuGgf.qrcode'
p18
sS'http://afternoon-cloud-1710.herokuapp.com/order/?id=365621'
p19
S'http://bit.ly/onFPm4.qrcode'
p20
sS'http://afternoon-cloud-1710.herokuapp.com/order/?id=365620'
p21
S'http://bit.ly/n2TG6C.qrcode'
p22
sS'http://afternoon-cloud-1710.herokuapp.com/order/?id=365627'
p23
S'http://bit.ly/qRRT03.qrcode'
p24
sS'http://afternoon-cloud-1710.herokuapp.com/order/?id=365626'
p25
S'http://bit.ly/pieTtR.qrcode'
p26
sS'http://afternoon-cloud-1710.herokuapp.com/order/?id=841987'
p27
S'http://bit.ly/rtLsdL.qrcode'
p28
sS'http://afternoon-cloud-1710.herokuapp.com/order/?id=364638'
p29
S'http://bit.ly/n3TN2o.qrcode'
p30
sS'http://afternoon-cloud-1710.herokuapp.com/order/?id=364548'
p31
S'http://bit.ly/nmy4ve.qrcode'
p32
sS'http://afternoon-cloud-1710.herokuapp.com/order/?id=365628'
p33
S'http://bit.ly/rqVNyn.qrcode'
p34
sS'http://afternoon-cloud-1710.herokuapp.com/order/?id=364589'
p35
S'http://bit.ly/q2maR3.qrcode'
p36
sS'http://afternoon-cloud-1710.herokuapp.com/order/?id=364588'
p37
S'http://bit.ly/qPLqGq.qrcode'
p38
sS'http://afternoon-cloud-1710.herokuapp.com/order/?id=364585'
p39
S'http://bit.ly/pZfsAs.qrcode'
p40
sS'http://afternoon-cloud-1710.herokuapp.com/order/?id=364584'
p41
S'http://bit.ly/nFn3HN.qrcode'
p42
sS'http://afternoon-cloud-1710.herokuapp.com/order/?id=364587'
p43
S'http://bit.ly/n7rIvI.qrcode'
p44
sS'http://afternoon-cloud-1710.herokuapp.com/order/?id=364586'
p45
S'http://bit.ly/pcyOWG.qrcode'
p46
sS'http://afternoon-cloud-1710.herokuapp.com/order/?id=760049'
p47
S'http://bit.ly/pUYecs.qrcode'
p48
sS'http://afternoon-cloud-1710.herokuapp.com/order/?id=364549'
p49
S'http://bit.ly/q7UM8A.qrcode'
p50
sS'http://afternoon-cloud-1710.herokuapp.com/order/?id=364551'
p51
S'http://bit.ly/qD6hRn.qrcode'
p52
sS'http://afternoon-cloud-1710.herokuapp.com/order/?id=795184'
p53
S'http://bit.ly/oSp4S0.qrcode'
p54
sS'http://afternoon-cloud-1710.herokuapp.com/order/?id=365629'
p55
S'http://bit.ly/qsCa51.qrcode'
p56
sS'http://afternoon-cloud-1710.herokuapp.com/order/?id=365634'
p57
S'http://bit.ly/ramvVK.qrcode'
p58
sS'http://afternoon-cloud-1710.herokuapp.com/order/?id=365635'
p59
S'http://bit.ly/q0qGCn.qrcode'
p60
sS'http://afternoon-cloud-1710.herokuapp.com/order/?id=365636'
p61
S'http://bit.ly/o9Mp2Q.qrcode'
p62
sS'http://afternoon-cloud-1710.herokuapp.com/order/?id=365637'
p63
S'http://bit.ly/pSyTC2.qrcode'
p64
sS'http://afternoon-cloud-1710.herokuapp.com/order/?id=365616'
p65
S'http://bit.ly/qwR4mV.qrcode'
p66
sS'http://afternoon-cloud-1710.herokuapp.com/order/?id=365631'
p67
S'http://bit.ly/opL0pI.qrcode'
p68
sS'http://afternoon-cloud-1710.herokuapp.com/order/?id=365632'
p69
S'http://bit.ly/oBKkFp.qrcode'
p70
sS'http://afternoon-cloud-1710.herokuapp.com/order/?id=365615'
p71
S'http://bit.ly/oGE3Ye.qrcode'
p72
sS'http://afternoon-cloud-1710.herokuapp.com/order/?id=364552'
p73
S'http://bit.ly/o6iTnQ.qrcode'
p74
sS'http://afternoon-cloud-1710.herokuapp.com/order/?id=364553'
p75
S'http://bit.ly/ozjfNK.qrcode'
p76
sS'http://afternoon-cloud-1710.herokuapp.com/order/?id=364550'
p77
S'http://bit.ly/pGClu3.qrcode'
p78
sS'http://afternoon-cloud-1710.herokuapp.com/order/?id=365619'
p79
S'http://bit.ly/rhZ3ku.qrcode'
p80
sS'http://afternoon-cloud-1710.herokuapp.com/order/?id=365638'
p81
S'http://bit.ly/q78UrO.qrcode'
p82
sS'http://afternoon-cloud-1710.herokuapp.com/order/?id=795188'
p83
S'http://bit.ly/rbkx4o.qrcode'
p84
sS'http://afternoon-cloud-1710.herokuapp.com/order/?id=364572'
p85
S'http://bit.ly/rgwQCF.qrcode'
p86
sS'http://afternoon-cloud-1710.herokuapp.com/order/?id=365617'
p87
S'http://bit.ly/oZCfuh.qrcode'
p88
sS'http://afternoon-cloud-1710.herokuapp.com/order/?id=364538'
p89
S'http://bit.ly/qX1GRD.qrcode'
p90
sS'http://afternoon-cloud-1710.herokuapp.com/order/?id=364539'
p91
S'http://bit.ly/nNLMwT.qrcode'
p92
sS'http://afternoon-cloud-1710.herokuapp.com/order/?id=364622'
p93
S'http://bit.ly/n99KNt.qrcode'
p94
sS'http://afternoon-cloud-1710.herokuapp.com/order/?id=781324'
p95
S'http://bit.ly/oFozvt.qrcode'
p96
sS'http://afternoon-cloud-1710.herokuapp.com/order/?id=365622'
p97
S'http://bit.ly/pgvHf5.qrcode'
p98
sS'http://afternoon-cloud-1710.herokuapp.com/order/?id=365641'
p99
S'http://bit.ly/qclq0E.qrcode'
p100
sS'http://afternoon-cloud-1710.herokuapp.com/order/?id=365633'
p101
S'http://bit.ly/qdFESF.qrcode'
p102
sS'http://afternoon-cloud-1710.herokuapp.com/order/?id=364535'
p103
S'http://bit.ly/o90S1e.qrcode'
p104
sS'http://afternoon-cloud-1710.herokuapp.com/order/?id=364536'
p105
S'http://bit.ly/ou2DSc.qrcode'
p106
sS'http://afternoon-cloud-1710.herokuapp.com/order/?id=364537'
p107
S'http://bit.ly/r4lqxZ.qrcode'
p108
sS'http://afternoon-cloud-1710.herokuapp.com/order/?id=364541'
p109
S'http://bit.ly/qGcRKu.qrcode'
p110
sS'http://afternoon-cloud-1710.herokuapp.com/order/?id=365643'
p111
S'http://bit.ly/pk83hh.qrcode'
p112
sS'http://afternoon-cloud-1710.herokuapp.com/order/?id=365642'
p113
S'http://bit.ly/n2rQf8.qrcode'
p114
sS'http://afternoon-cloud-1710.herokuapp.com/order/?id=365625'
p115
S'http://bit.ly/mVrphc.qrcode'
p116
sS'http://afternoon-cloud-1710.herokuapp.com/order/?id=364575'
p117
S'http://bit.ly/r1kuPP.qrcode'
p118
sS'http://afternoon-cloud-1710.herokuapp.com/order/?id=364596'
p119
S'http://bit.ly/oHcArM.qrcode'
p120
sS'http://afternoon-cloud-1710.herokuapp.com/order/?id=364597'
p121
S'http://bit.ly/pmjSLE.qrcode'
p122
sS'http://afternoon-cloud-1710.herokuapp.com/order/?id=364594'
p123
S'http://bit.ly/pGnbHQ.qrcode'
p124
sS'http://afternoon-cloud-1710.herokuapp.com/order/?id=364595'
p125
S'http://bit.ly/pplqXO.qrcode'
p126
sS'http://afternoon-cloud-1710.herokuapp.com/order/?id=364593'
p127
S'http://bit.ly/q0fNmr.qrcode'
p128
sS'http://afternoon-cloud-1710.herokuapp.com/order/?id=364590'
p129
S'http://bit.ly/pt7r6K.qrcode'
p130
sS'http://afternoon-cloud-1710.herokuapp.com/order/?id=364591'
p131
S'http://bit.ly/qpiKHY.qrcode'
p132
sS'http://afternoon-cloud-1710.herokuapp.com/order/?id=364577'
p133
S'http://bit.ly/oDFRMa.qrcode'
p134
sS'http://afternoon-cloud-1710.herokuapp.com/order/?id=365640'
p135
S'http://bit.ly/qaDk7j.qrcode'
p136
sS'http://afternoon-cloud-1710.herokuapp.com/order/?id=364554'
p137
S'http://bit.ly/mUKdfi.qrcode'
p138
sS'http://afternoon-cloud-1710.herokuapp.com/order/?id=365618'
p139
S'http://bit.ly/pUmfDq.qrcode'
p140
sS'http://afternoon-cloud-1710.herokuapp.com/order/?id=364639'
p141
S'http://bit.ly/neFpBz.qrcode'
p142
sS'http://afternoon-cloud-1710.herokuapp.com/order/?id=365639'
p143
S'http://bit.ly/nkttGk.qrcode'
p144
sS'http://afternoon-cloud-1710.herokuapp.com/order/?id=364563'
p145
S'http://bit.ly/oAT9YY.qrcode'
p146
sS'http://afternoon-cloud-1710.herokuapp.com/order/?id=364562'
p147
S'http://bit.ly/oeiolC.qrcode'
p148
sS'http://afternoon-cloud-1710.herokuapp.com/order/?id=365630'
p149
S'http://bit.ly/nWOjo7.qrcode'
p150
sS'http://afternoon-cloud-1710.herokuapp.com/order/?id=364566'
p151
S'http://bit.ly/pmhigM.qrcode'
p152
sS'http://afternoon-cloud-1710.herokuapp.com/order/?id=364565'
p153
S'http://bit.ly/oDu20J.qrcode'
p154
sS'http://afternoon-cloud-1710.herokuapp.com/order/?id=364564'
p155
S'http://bit.ly/oMEPCV.qrcode'
p156
sS'http://afternoon-cloud-1710.herokuapp.com/order/?id=365624'
p157
S'http://bit.ly/pLXuLC.qrcode'
p158
sS'http://afternoon-cloud-1710.herokuapp.com/order/?id=364540'
p159
S'http://bit.ly/mZJkip.qrcode'
p160
sS'http://afternoon-cloud-1710.herokuapp.com/order/?id=364569'
p161
S'http://bit.ly/priUly.qrcode'
p162
sS'http://afternoon-cloud-1710.herokuapp.com/order/?id=364555'
p163
S'http://bit.ly/oAJFen.qrcode'
p164
sS'http://afternoon-cloud-1710.herokuapp.com/order/?id=364545'
p165
S'http://bit.ly/pZUFNU.qrcode'
p166
sS'http://afternoon-cloud-1710.herokuapp.com/order/?id=364547'
p167
S'http://bit.ly/ncotLC.qrcode'
p168
sS'http://afternoon-cloud-1710.herokuapp.com/order/?id=364546'
p169
S'http://bit.ly/ot3IgN.qrcode'
p170
s.